target datalayout = "e-m:e-p270:32:32-p271:32:32-p272:64:64-i64:64-i128:128-f80:128-n8:16:32:64-S128"
target triple = "x86_64-pc-linux-gnu"

%"class.cv::Mat" = type { i32, i32, i32, i32, ptr, ptr, ptr, ptr, ptr, ptr, %"struct.cv::MatSize", %"struct.cv::MatStep" }
%"struct.cv::MatSize" = type { ptr }
%"struct.cv::MatStep" = type { ptr, [2 x i64] }
%"class.cv::Size_" = type { i32, i32 }
%"class.cv::_InputArray" = type { i32, ptr, %"class.cv::Size_" }
%"class.cv::Scalar_" = type { %"class.cv::Vec" }
%"class.cv::Vec" = type { %"class.cv::Matx.0" }
%"class.cv::Matx.0" = type { [4 x double] }
%"class.cv::_OutputArray" = type { %"class.cv::_InputArray" }
%"class.cv::MatExpr" = type { ptr, i32, %"class.cv::Mat", %"class.cv::Mat", %"class.cv::Mat", double, double, %"class.cv::Scalar_" }
%"class.cv::details::Chessboard::Board" = type { ptr, %"class.std::vector.24", %"class.std::vector.29", ptr, i32, i32, float, float }
%"class.std::vector.24" = type { %"struct.std::_Vector_base.25" }
%"struct.std::_Vector_base.25" = type { %"struct.std::_Vector_base<cv::details::Chessboard::Board::Cell *, std::allocator<cv::details::Chessboard::Board::Cell *>>::_Vector_impl" }
%"struct.std::_Vector_base<cv::details::Chessboard::Board::Cell *, std::allocator<cv::details::Chessboard::Board::Cell *>>::_Vector_impl" = type { %"struct.std::_Vector_base<cv::details::Chessboard::Board::Cell *, std::allocator<cv::details::Chessboard::Board::Cell *>>::_Vector_impl_data" }
%"struct.std::_Vector_base<cv::details::Chessboard::Board::Cell *, std::allocator<cv::details::Chessboard::Board::Cell *>>::_Vector_impl_data" = type { ptr, ptr, ptr }
%"class.std::vector.29" = type { %"struct.std::_Vector_base.30" }
%"struct.std::_Vector_base.30" = type { %"struct.std::_Vector_base<cv::Point_<float> *, std::allocator<cv::Point_<float> *>>::_Vector_impl" }
%"struct.std::_Vector_base<cv::Point_<float> *, std::allocator<cv::Point_<float> *>>::_Vector_impl" = type { %"struct.std::_Vector_base<cv::Point_<float> *, std::allocator<cv::Point_<float> *>>::_Vector_impl_data" }
%"struct.std::_Vector_base<cv::Point_<float> *, std::allocator<cv::Point_<float> *>>::_Vector_impl_data" = type { ptr, ptr, ptr }

; Function Attrs: inlinehint mustprogress nounwind uwtable
define linkonce_odr hidden void @_ZN2cv4MatxIdLi4ELi1EEC2Ev(ptr noundef nonnull align 8 dereferenceable(32) %0) unnamed_addr #6 comdat align 2 {
  %2 = alloca ptr, align 8
  %3 = alloca i32, align 4
  store ptr %0, ptr %2, align 8, !tbaa !565
  %4 = load ptr, ptr %2, align 8
  call void @llvm.lifetime.start.p0(i64 4, ptr %3) #3
  store i32 0, ptr %3, align 4, !tbaa !3
  br label %5

5:                                                ; preds = %14, %1
  %6 = load i32, ptr %3, align 4, !tbaa !3
  %7 = icmp slt i32 %6, 4
  br i1 %7, label %9, label %8

8:                                                ; preds = %5
  call void @llvm.lifetime.end.p0(i64 4, ptr %3) #3
  br label %17

9:                                                ; preds = %5
  %10 = getelementptr inbounds nuw %"class.cv::Matx.0", ptr %4, i32 0, i32 0
  %11 = load i32, ptr %3, align 4, !tbaa !3
  %12 = sext i32 %11 to i64
  %13 = getelementptr inbounds [4 x double], ptr %10, i64 0, i64 %12
  store double 0.000000e+00, ptr %13, align 8, !tbaa !37
  br label %14

14:                                               ; preds = %9
  %15 = load i32, ptr %3, align 4, !tbaa !3
  %16 = add nsw i32 %15, 1
  store i32 %16, ptr %3, align 4, !tbaa !3
  br label %5, !llvm.loop !831

17:                                               ; preds = %8
  ret void
}

; Function Attrs: inlinehint mustprogress nounwind uwtable
define linkonce_odr hidden void @_ZN2cv5Size_IiEC2Ev(ptr noundef nonnull align 4 dereferenceable(8) %0) unnamed_addr #6 comdat align 2 {
  %2 = alloca ptr, align 8
  store ptr %0, ptr %2, align 8, !tbaa !151
  %3 = load ptr, ptr %2, align 8
  %4 = getelementptr inbounds nuw %"class.cv::Size_", ptr %3, i32 0, i32 0
  store i32 0, ptr %4, align 4, !tbaa !35
  %5 = getelementptr inbounds nuw %"class.cv::Size_", ptr %3, i32 0, i32 1
  store i32 0, ptr %5, align 4, !tbaa !39
  ret void
}

; Function Attrs: inlinehint mustprogress uwtable
define linkonce_odr hidden void @_ZN2cv3VecIdLi4EEC2Ev(ptr noundef nonnull align 8 dereferenceable(32) %0) unnamed_addr #12 comdat align 2 {
  %2 = alloca ptr, align 8
  store ptr %0, ptr %2, align 8, !tbaa !416
  %3 = load ptr, ptr %2, align 8
  call void @_ZN2cv4MatxIdLi4ELi1EEC2Ev(ptr noundef nonnull align 8 dereferenceable(32) %3)
  ret void
}

; Function Attrs: inlinehint mustprogress nounwind uwtable
define linkonce_odr hidden void @_ZN2cv11_InputArray4initEiPKv(ptr noundef nonnull align 8 dereferenceable(24) %0, i32 noundef %1, ptr noundef %2) #6 comdat align 2 {
  %4 = alloca ptr, align 8
  %5 = alloca i32, align 4
  %6 = alloca ptr, align 8
  store ptr %0, ptr %4, align 8, !tbaa !31
  store i32 %1, ptr %5, align 4, !tbaa !3
  store ptr %2, ptr %6, align 8, !tbaa !123
  %7 = load ptr, ptr %4, align 8
  %8 = load i32, ptr %5, align 4, !tbaa !3
  %9 = getelementptr inbounds nuw %"class.cv::_InputArray", ptr %7, i32 0, i32 0
  store i32 %8, ptr %9, align 8, !tbaa !602
  %10 = load ptr, ptr %6, align 8, !tbaa !123
  %11 = getelementptr inbounds nuw %"class.cv::_InputArray", ptr %7, i32 0, i32 1
  store ptr %10, ptr %11, align 8, !tbaa !174
  ret void
}

; Function Attrs: inlinehint mustprogress uwtable
define linkonce_odr hidden void @_ZN2cv11_InputArrayC2Ev(ptr noundef nonnull align 8 dereferenceable(24) %0) unnamed_addr #12 comdat align 2 {
  %2 = alloca ptr, align 8
  store ptr %0, ptr %2, align 8, !tbaa !31
  %3 = load ptr, ptr %2, align 8
  %4 = getelementptr inbounds nuw %"class.cv::_InputArray", ptr %3, i32 0, i32 2
  call void @_ZN2cv5Size_IiEC2Ev(ptr noundef nonnull align 4 dereferenceable(8) %4)
  call void @_ZN2cv11_InputArray4initEiPKv(ptr noundef nonnull align 8 dereferenceable(24) %3, i32 noundef 0, ptr noundef null)
  ret void
}

; Function Attrs: inlinehint mustprogress nounwind uwtable
define linkonce_odr hidden void @_ZN2cv5Size_IiEC2Eii(ptr noundef nonnull align 4 dereferenceable(8) %0, i32 noundef %1, i32 noundef %2) unnamed_addr #6 comdat align 2 {
  %4 = alloca ptr, align 8
  %5 = alloca i32, align 4
  %6 = alloca i32, align 4
  store ptr %0, ptr %4, align 8, !tbaa !151
  store i32 %1, ptr %5, align 4, !tbaa !3
  store i32 %2, ptr %6, align 4, !tbaa !3
  %7 = load ptr, ptr %4, align 8
  %8 = getelementptr inbounds nuw %"class.cv::Size_", ptr %7, i32 0, i32 0
  %9 = load i32, ptr %5, align 4, !tbaa !3
  store i32 %9, ptr %8, align 4, !tbaa !35
  %10 = getelementptr inbounds nuw %"class.cv::Size_", ptr %7, i32 0, i32 1
  %11 = load i32, ptr %6, align 4, !tbaa !3
  store i32 %11, ptr %10, align 4, !tbaa !39
  ret void
}

; Function Attrs: mustprogress nounwind uwtable
define hidden noundef i64 @_ZNK2cv7details10Chessboard5Board8rowCountEv(ptr noundef nonnull align 8 dereferenceable(80) %0) #7 align 2 {
  %2 = alloca ptr, align 8
  store ptr %0, ptr %2, align 8, !tbaa !236
  %3 = load ptr, ptr %2, align 8
  %4 = getelementptr inbounds nuw %"class.cv::details::Chessboard::Board", ptr %3, i32 0, i32 4
  %5 = load i32, ptr %4, align 8, !tbaa !250
  %6 = sext i32 %5 to i64
  ret i64 %6
}

; Function Attrs: mustprogress nounwind uwtable
define hidden noundef i64 @_ZNK2cv7details10Chessboard5Board8colCountEv(ptr noundef nonnull align 8 dereferenceable(80) %0) #7 align 2 {
  %2 = alloca ptr, align 8
  store ptr %0, ptr %2, align 8, !tbaa !236
  %3 = load ptr, ptr %2, align 8
  %4 = getelementptr inbounds nuw %"class.cv::details::Chessboard::Board", ptr %3, i32 0, i32 5
  %5 = load i32, ptr %4, align 4, !tbaa !251
  %6 = sext i32 %5 to i64
  ret i64 %6
}

; Function Attrs: inlinehint mustprogress nounwind uwtable
define linkonce_odr hidden void @_ZN2cv11_InputArrayD2Ev(ptr noundef nonnull align 8 dereferenceable(24) %0) unnamed_addr #6 comdat align 2 {
  %2 = alloca ptr, align 8
  store ptr %0, ptr %2, align 8, !tbaa !31
  ret void
}

; Function Attrs: inlinehint mustprogress uwtable
define linkonce_odr hidden void @_ZN2cv7Scalar_IdEC2Ev(ptr noundef nonnull align 8 dereferenceable(32) %0) unnamed_addr #12 comdat align 2 {
  %2 = alloca ptr, align 8
  store ptr %0, ptr %2, align 8, !tbaa !63
  %3 = load ptr, ptr %2, align 8
  call void @_ZN2cv3VecIdLi4EEC2Ev(ptr noundef nonnull align 8 dereferenceable(32) %3)
  %4 = getelementptr inbounds nuw %"class.cv::Matx.0", ptr %3, i32 0, i32 0
  %5 = getelementptr inbounds [4 x double], ptr %4, i64 0, i64 3
  store double 0.000000e+00, ptr %5, align 8, !tbaa !37
  %6 = getelementptr inbounds nuw %"class.cv::Matx.0", ptr %3, i32 0, i32 0
  %7 = getelementptr inbounds [4 x double], ptr %6, i64 0, i64 2
  store double 0.000000e+00, ptr %7, align 8, !tbaa !37
  %8 = getelementptr inbounds nuw %"class.cv::Matx.0", ptr %3, i32 0, i32 0
  %9 = getelementptr inbounds [4 x double], ptr %8, i64 0, i64 1
  store double 0.000000e+00, ptr %9, align 8, !tbaa !37
  %10 = getelementptr inbounds nuw %"class.cv::Matx.0", ptr %3, i32 0, i32 0
  %11 = getelementptr inbounds [4 x double], ptr %10, i64 0, i64 0
  store double 0.000000e+00, ptr %11, align 8, !tbaa !37
  ret void
}

; Function Attrs: inlinehint mustprogress uwtable
define linkonce_odr hidden void @_ZN2cv12_OutputArrayC2ERNS_3MatE(ptr noundef nonnull align 8 dereferenceable(24) %0, ptr noundef nonnull align 8 dereferenceable(96) %1) unnamed_addr #12 comdat align 2 {
  %3 = alloca ptr, align 8
  %4 = alloca ptr, align 8
  store ptr %0, ptr %3, align 8, !tbaa !33
  store ptr %1, ptr %4, align 8, !tbaa !47
  %5 = load ptr, ptr %3, align 8
  call void @_ZN2cv11_InputArrayC2Ev(ptr noundef nonnull align 8 dereferenceable(24) %5)
  %6 = load ptr, ptr %4, align 8, !tbaa !47
  call void @_ZN2cv11_InputArray4initEiPKv(ptr noundef nonnull align 8 dereferenceable(24) %5, i32 noundef 33619968, ptr noundef %6)
  ret void
}

; Function Attrs: mustprogress uwtable
define hidden i64 @_ZNK2cv7details10Chessboard5Board7getSizeEv(ptr noundef nonnull align 8 dereferenceable(80) %0) #5 align 2 {
  %2 = alloca %"class.cv::Size_", align 4
  %3 = alloca ptr, align 8
  store ptr %0, ptr %3, align 8, !tbaa !236
  %4 = load ptr, ptr %3, align 8
  %5 = call noundef i64 @_ZNK2cv7details10Chessboard5Board8colCountEv(ptr noundef nonnull align 8 dereferenceable(80) %4)
  %6 = trunc i64 %5 to i32
  %7 = call noundef i64 @_ZNK2cv7details10Chessboard5Board8rowCountEv(ptr noundef nonnull align 8 dereferenceable(80) %4)
  %8 = trunc i64 %7 to i32
  call void @_ZN2cv5Size_IiEC2Eii(ptr noundef nonnull align 4 dereferenceable(8) %2, i32 noundef %6, i32 noundef %8)
  %9 = load i64, ptr %2, align 4
  ret i64 %9
}

; Function Attrs: mustprogress uwtable
define hidden void @_ZNK2cv7details10Chessboard5Board9warpImageERKNS_11_InputArrayE(ptr dead_on_unwind noalias writable sret(%"class.cv::Mat") align 8 %0, ptr noundef nonnull align 8 dereferenceable(80) %1, ptr noundef nonnull align 8 dereferenceable(24) %2) #5 align 2 personality ptr @__gxx_personality_v0 {
  %4 = alloca ptr, align 8
  %5 = alloca ptr, align 8
  %6 = alloca ptr, align 8
  %7 = alloca %"class.cv::Mat", align 8
  %8 = alloca i1, align 1
  %9 = alloca %"class.cv::Size_", align 4
  %10 = alloca ptr, align 8
  %11 = alloca i32, align 4
  %12 = alloca %"class.cv::_OutputArray", align 8
  %13 = alloca %"class.cv::_InputArray", align 8
  %14 = alloca %"class.cv::MatExpr", align 8
  %15 = alloca %"class.cv::Size_", align 4
  %16 = alloca %"class.cv::Scalar_", align 8
  store ptr %0, ptr %4, align 8
  store ptr %1, ptr %5, align 8, !tbaa !236
  store ptr %2, ptr %6, align 8, !tbaa !31
  %17 = load ptr, ptr %5, align 8
  call void @llvm.lifetime.start.p0(i64 96, ptr %7) #3
  call void @_ZNK2cv7details10Chessboard5Board18estimateHomographyEi(ptr dead_on_unwind writable sret(%"class.cv::Mat") align 8 %7, ptr noundef nonnull align 8 dereferenceable(80) %17, i32 noundef 100)
  store i1 false, ptr %8, align 1
  call void @_ZN2cv3MatC1Ev(ptr noundef nonnull align 8 dereferenceable(96) %0) #3
  call void @llvm.lifetime.start.p0(i64 8, ptr %9) #3
  %18 = invoke i64 @_ZNK2cv7details10Chessboard5Board7getSizeEv(ptr noundef nonnull align 8 dereferenceable(80) %17)
          to label %19 unwind label %38

19:                                               ; preds = %3
  store i64 %18, ptr %9, align 4
  %20 = getelementptr inbounds nuw %"class.cv::Size_", ptr %9, i32 0, i32 0
  %21 = load i32, ptr %20, align 4, !tbaa !35
  %22 = add nsw i32 %21, 1
  %23 = mul nsw i32 %22, 100
  %24 = getelementptr inbounds nuw %"class.cv::Size_", ptr %9, i32 0, i32 0
  store i32 %23, ptr %24, align 4, !tbaa !35
  %25 = getelementptr inbounds nuw %"class.cv::Size_", ptr %9, i32 0, i32 1
  %26 = load i32, ptr %25, align 4, !tbaa !39
  %27 = add nsw i32 %26, 1
  %28 = mul nsw i32 %27, 100
  %29 = getelementptr inbounds nuw %"class.cv::Size_", ptr %9, i32 0, i32 1
  store i32 %28, ptr %29, align 4, !tbaa !39
  %30 = load ptr, ptr %6, align 8, !tbaa !31
  call void @llvm.lifetime.start.p0(i64 24, ptr %12) #3
  invoke void @_ZN2cv12_OutputArrayC2ERNS_3MatE(ptr noundef nonnull align 8 dereferenceable(24) %12, ptr noundef nonnull align 8 dereferenceable(96) %0)
          to label %31 unwind label %42

31:                                               ; preds = %19
  call void @llvm.lifetime.start.p0(i64 24, ptr %13) #3
  call void @llvm.lifetime.start.p0(i64 352, ptr %14) #3
  invoke void @_ZNK2cv3Mat3invEi(ptr dead_on_unwind writable sret(%"class.cv::MatExpr") align 8 %14, ptr noundef nonnull align 8 dereferenceable(96) %7, i32 noundef 0)
          to label %32 unwind label %46

32:                                               ; preds = %31
  invoke void @_ZN2cv11_InputArrayC1ERKNS_7MatExprE(ptr noundef nonnull align 8 dereferenceable(24) %13, ptr noundef nonnull align 8 dereferenceable(352) %14)
          to label %33 unwind label %50

33:                                               ; preds = %32
  call void @llvm.memcpy.p0.p0.i64(ptr align 4 %15, ptr align 4 %9, i64 8, i1 false), !tbaa.struct !40
  call void @llvm.lifetime.start.p0(i64 32, ptr %16) #3
  invoke void @_ZN2cv7Scalar_IdEC2Ev(ptr noundef nonnull align 8 dereferenceable(32) %16)
          to label %34 unwind label %54

34:                                               ; preds = %33
  %35 = load i64, ptr %15, align 4
  invoke void @_ZN2cv15warpPerspectiveERKNS_11_InputArrayERKNS_12_OutputArrayES2_NS_5Size_IiEEiiRKNS_7Scalar_IdEE(ptr noundef nonnull align 8 dereferenceable(24) %30, ptr noundef nonnull align 8 dereferenceable(24) %12, ptr noundef nonnull align 8 dereferenceable(24) %13, i64 %35, i32 noundef 1, i32 noundef 0, ptr noundef nonnull align 8 dereferenceable(32) %16)
          to label %36 unwind label %54

36:                                               ; preds = %34
  call void @llvm.lifetime.end.p0(i64 32, ptr %16) #3
  call void @_ZN2cv11_InputArrayD2Ev(ptr noundef nonnull align 8 dereferenceable(24) %13) #3
  call void @_ZN2cv7MatExprD2Ev(ptr noundef nonnull align 8 dereferenceable(352) %14) #3
  call void @llvm.lifetime.end.p0(i64 352, ptr %14) #3
  call void @llvm.lifetime.end.p0(i64 24, ptr %13) #3
  call void @_ZN2cv11_InputArrayD2Ev(ptr noundef nonnull align 8 dereferenceable(24) %12) #3
  call void @llvm.lifetime.end.p0(i64 24, ptr %12) #3
  store i1 true, ptr %8, align 1
  call void @llvm.lifetime.end.p0(i64 8, ptr %9) #3
  %37 = load i1, ptr %8, align 1
  br i1 %37, label %63, label %62

38:                                               ; preds = %3
  %39 = landingpad { ptr, i32 }
          cleanup
  %40 = extractvalue { ptr, i32 } %39, 0
  store ptr %40, ptr %10, align 8
  %41 = extractvalue { ptr, i32 } %39, 1
  store i32 %41, ptr %11, align 4
  br label %61

42:                                               ; preds = %19
  %43 = landingpad { ptr, i32 }
          cleanup
  %44 = extractvalue { ptr, i32 } %43, 0
  store ptr %44, ptr %10, align 8
  %45 = extractvalue { ptr, i32 } %43, 1
  store i32 %45, ptr %11, align 4
  br label %60

46:                                               ; preds = %31
  %47 = landingpad { ptr, i32 }
          cleanup
  %48 = extractvalue { ptr, i32 } %47, 0
  store ptr %48, ptr %10, align 8
  %49 = extractvalue { ptr, i32 } %47, 1
  store i32 %49, ptr %11, align 4
  br label %59

50:                                               ; preds = %32
  %51 = landingpad { ptr, i32 }
          cleanup
  %52 = extractvalue { ptr, i32 } %51, 0
  store ptr %52, ptr %10, align 8
  %53 = extractvalue { ptr, i32 } %51, 1
  store i32 %53, ptr %11, align 4
  br label %58

54:                                               ; preds = %34, %33
  %55 = landingpad { ptr, i32 }
          cleanup
  %56 = extractvalue { ptr, i32 } %55, 0
  store ptr %56, ptr %10, align 8
  %57 = extractvalue { ptr, i32 } %55, 1
  store i32 %57, ptr %11, align 4
  call void @llvm.lifetime.end.p0(i64 32, ptr %16) #3
  call void @_ZN2cv11_InputArrayD2Ev(ptr noundef nonnull align 8 dereferenceable(24) %13) #3
  br label %58

58:                                               ; preds = %54, %50
  call void @_ZN2cv7MatExprD2Ev(ptr noundef nonnull align 8 dereferenceable(352) %14) #3
  br label %59

59:                                               ; preds = %58, %46
  call void @llvm.lifetime.end.p0(i64 352, ptr %14) #3
  call void @llvm.lifetime.end.p0(i64 24, ptr %13) #3
  call void @_ZN2cv11_InputArrayD2Ev(ptr noundef nonnull align 8 dereferenceable(24) %12) #3
  br label %60

60:                                               ; preds = %59, %42
  call void @llvm.lifetime.end.p0(i64 24, ptr %12) #3
  br label %61

61:                                               ; preds = %60, %38
  call void @llvm.lifetime.end.p0(i64 8, ptr %9) #3
  call void @_ZN2cv3MatD1Ev(ptr noundef nonnull align 8 dereferenceable(96) %0) #3
  call void @_ZN2cv3MatD1Ev(ptr noundef nonnull align 8 dereferenceable(96) %7) #3
  call void @llvm.lifetime.end.p0(i64 96, ptr %7) #3
  br label %64

62:                                               ; preds = %36
  call void @_ZN2cv3MatD1Ev(ptr noundef nonnull align 8 dereferenceable(96) %0) #3
  br label %63

63:                                               ; preds = %62, %36
  call void @_ZN2cv3MatD1Ev(ptr noundef nonnull align 8 dereferenceable(96) %7) #3
  call void @llvm.lifetime.end.p0(i64 96, ptr %7) #3
  ret void

64:                                               ; preds = %61
  %65 = load ptr, ptr %10, align 8
  %66 = load i32, ptr %11, align 4
  %67 = insertvalue { ptr, i32 } poison, ptr %65, 0
  %68 = insertvalue { ptr, i32 } %67, i32 %66, 1
  resume { ptr, i32 } %68
}