; Function Attrs: mustprogress uwtable
define hidden void @_ZNK2cv7details10Chessboard5Board9warpImageERKNS_11_InputArrayE(ptr dead_on_unwind noalias writable sret(%"class.cv::Mat") align 8 %0, ptr noundef nonnull readonly align 8 captures(none) dereferenceable(80) %1, ptr noundef nonnull align 8 dereferenceable(24) %2) local_unnamed_addr #5 align 2 personality ptr @__gxx_personality_v0 {
  %4 = alloca %"class.cv::Mat", align 8
  %5 = alloca %"class.cv::_OutputArray", align 8
  %6 = alloca %"class.cv::_InputArray", align 8
  %7 = alloca %"class.cv::MatExpr", align 8
  %8 = alloca %"class.cv::Scalar_", align 8
  call void @llvm.lifetime.start.p0(i64 96, ptr nonnull %4) #37
  call void @_ZNK2cv7details10Chessboard5Board18estimateHomographyEi(ptr dead_on_unwind nonnull writable sret(%"class.cv::Mat") align 8 %4, ptr noundef nonnull align 8 dereferenceable(80) %1, i32 noundef 100)
  call void @_ZN2cv3MatC1Ev(ptr noundef nonnull align 8 dereferenceable(96) %0) #37
  %9 = getelementptr inbounds nuw i8, ptr %1, i64 68
  %10 = load i32, ptr %9, align 4, !tbaa !220
  %11 = getelementptr inbounds nuw i8, ptr %1, i64 64
  %12 = load i32, ptr %11, align 8, !tbaa !219
  %.sroa.2.0.insert.ext.i = zext i32 %12 to i64
  %.sroa.0.0.insert.ext.i = zext i32 %10 to i64
  %13 = mul nuw nsw i64 %.sroa.0.0.insert.ext.i, 100
  %14 = add nuw nsw i64 %13, 100
  call void @llvm.lifetime.start.p0(i64 24, ptr nonnull %5) #37
  %15 = getelementptr inbounds nuw i8, ptr %5, i64 8
  %16 = getelementptr inbounds nuw i8, ptr %5, i64 16
  store i64 0, ptr %16, align 8
  store i32 33619968, ptr %5, align 8, !tbaa !40
  store ptr %0, ptr %15, align 8, !tbaa !43
  call void @llvm.lifetime.start.p0(i64 24, ptr nonnull %6) #37
  call void @llvm.lifetime.start.p0(i64 352, ptr nonnull %7) #37
  invoke void @_ZNK2cv3Mat3invEi(ptr dead_on_unwind nonnull writable sret(%"class.cv::MatExpr") align 8 %7, ptr noundef nonnull align 8 dereferenceable(96) %4, i32 noundef 0)
          to label %17 unwind label %24

17:                                               ; preds = %3
  invoke void @_ZN2cv11_InputArrayC1ERKNS_7MatExprE(ptr noundef nonnull align 8 dereferenceable(24) %6, ptr noundef nonnull align 8 dereferenceable(352) %7)
          to label %18 unwind label %26

18:                                               ; preds = %17
  call void @llvm.lifetime.start.p0(i64 32, ptr nonnull %8) #37
  call void @llvm.memset.p0.i64(ptr noundef nonnull align 8 dereferenceable(32) %8, i8 0, i64 32, i1 false)
  %19 = mul i64 %.sroa.2.0.insert.ext.i, 429496729600
  %.sroa.7.0.insert.ext = add i64 %19, 429496729600
  %.sroa.01.0.insert.ext = and i64 %14, 4294967292
  %.sroa.01.0.insert.insert = or disjoint i64 %.sroa.7.0.insert.ext, %.sroa.01.0.insert.ext
  invoke void @_ZN2cv15warpPerspectiveERKNS_11_InputArrayERKNS_12_OutputArrayES2_NS_5Size_IiEEiiRKNS_7Scalar_IdEE(ptr noundef nonnull align 8 dereferenceable(24) %2, ptr noundef nonnull align 8 dereferenceable(24) %5, ptr noundef nonnull align 8 dereferenceable(24) %6, i64 %.sroa.01.0.insert.insert, i32 noundef 1, i32 noundef 0, ptr noundef nonnull align 8 dereferenceable(32) %8)
          to label %20 unwind label %28

20:                                               ; preds = %18
  call void @llvm.lifetime.end.p0(i64 32, ptr nonnull %8) #37
  %21 = getelementptr inbounds nuw i8, ptr %7, i64 208
  call void @_ZN2cv3MatD1Ev(ptr noundef nonnull align 8 dereferenceable(96) %21) #37
  %22 = getelementptr inbounds nuw i8, ptr %7, i64 112
  call void @_ZN2cv3MatD1Ev(ptr noundef nonnull align 8 dereferenceable(96) %22) #37
  %23 = getelementptr inbounds nuw i8, ptr %7, i64 16
  call void @_ZN2cv3MatD1Ev(ptr noundef nonnull align 8 dereferenceable(96) %23) #37
  call void @llvm.lifetime.end.p0(i64 352, ptr nonnull %7) #37
  call void @llvm.lifetime.end.p0(i64 24, ptr nonnull %6) #37
  call void @llvm.lifetime.end.p0(i64 24, ptr nonnull %5) #37
  call void @_ZN2cv3MatD1Ev(ptr noundef nonnull align 8 dereferenceable(96) %4) #37
  call void @llvm.lifetime.end.p0(i64 96, ptr nonnull %4) #37
  ret void

24:                                               ; preds = %3
  %25 = landingpad { ptr, i32 }
          cleanup
  br label %31

26:                                               ; preds = %17
  %27 = landingpad { ptr, i32 }
          cleanup
  br label %30

28:                                               ; preds = %18
  %29 = landingpad { ptr, i32 }
          cleanup
  call void @llvm.lifetime.end.p0(i64 32, ptr nonnull %8) #37
  br label %30

30:                                               ; preds = %28, %26
  %.pn = phi { ptr, i32 } [ %29, %28 ], [ %27, %26 ]
  call void @_ZN2cv7MatExprD2Ev(ptr noundef nonnull align 8 dereferenceable(352) %7) #37
  br label %31

31:                                               ; preds = %30, %24
  %.pn.pn = phi { ptr, i32 } [ %.pn, %30 ], [ %25, %24 ]
  call void @llvm.lifetime.end.p0(i64 352, ptr nonnull %7) #37
  call void @llvm.lifetime.end.p0(i64 24, ptr nonnull %6) #37
  call void @llvm.lifetime.end.p0(i64 24, ptr nonnull %5) #37
  call void @_ZN2cv3MatD1Ev(ptr noundef nonnull align 8 dereferenceable(96) %0) #37
  call void @_ZN2cv3MatD1Ev(ptr noundef nonnull align 8 dereferenceable(96) %4) #37
  call void @llvm.lifetime.end.p0(i64 96, ptr nonnull %4) #37
  resume { ptr, i32 } %.pn.pn
}